target datalayout = "e-m:e-p270:32:32-p271:32:32-p272:64:64-i64:64-i128:128-f80:128-n8:16:32:64-S128"
target triple = "x86_64-unknown-linux-gnu"

%"union.half::uif" = type { i32 }
%"class.OpenImageIO_v2_6_0::simd::vfloat4" = type { %union.anon.0 }
%union.anon.0 = type { <4 x float> }
%class.half = type { i16 }

@_ZN4half5_eLutE = external constant [512 x i16], align 16

; Function Attrs: mustprogress uwtable
define linkonce_odr hidden void @_ZN4halfC2Ef(ptr noundef nonnull align 2 dereferenceable(2) %this, float noundef %f) unnamed_addr #7 comdat align 2 {
entry:
  %this.addr = alloca ptr, align 8
  %f.addr = alloca float, align 4
  %x = alloca %"union.half::uif", align 4
  %e = alloca i32, align 4
  %m = alloca i32, align 4
  store ptr %this, ptr %this.addr, align 8
  store float %f, ptr %f.addr, align 4
  %this1 = load ptr, ptr %this.addr, align 8
  %0 = load float, ptr %f.addr, align 4
  store float %0, ptr %x, align 4
  %1 = load float, ptr %f.addr, align 4
  %cmp = fcmp oeq float %1, 0.000000e+00
  br i1 %cmp, label %if.then, label %if.else

if.then:                                          ; preds = %entry
  %2 = load i32, ptr %x, align 4
  %shr = lshr i32 %2, 16
  %conv = trunc i32 %shr to i16
  %_h = getelementptr inbounds %class.half, ptr %this1, i32 0, i32 0
  store i16 %conv, ptr %_h, align 2
  br label %if.end15

if.else:                                          ; preds = %entry
  %3 = load i32, ptr %x, align 4
  %shr2 = lshr i32 %3, 23
  %and = and i32 %shr2, 511
  store i32 %and, ptr %e, align 4
  %4 = load i32, ptr %e, align 4
  %idxprom = sext i32 %4 to i64
  %arrayidx = getelementptr inbounds [512 x i16], ptr @_ZN4half5_eLutE, i64 0, i64 %idxprom
  %5 = load i16, ptr %arrayidx, align 2
  %conv3 = zext i16 %5 to i32
  store i32 %conv3, ptr %e, align 4
  %6 = load i32, ptr %e, align 4
  %tobool = icmp ne i32 %6, 0
  br i1 %tobool, label %if.then4, label %if.else13

if.then4:                                         ; preds = %if.else
  %7 = load i32, ptr %x, align 4
  %and5 = and i32 %7, 8388607
  store i32 %and5, ptr %m, align 4
  %8 = load i32, ptr %e, align 4
  %9 = load i32, ptr %m, align 4
  %add = add nsw i32 %9, 4095
  %10 = load i32, ptr %m, align 4
  %shr6 = ashr i32 %10, 13
  %and7 = and i32 %shr6, 1
  %add8 = add nsw i32 %add, %and7
  %shr9 = ashr i32 %add8, 13
  %add10 = add nsw i32 %8, %shr9
  %conv11 = trunc i32 %add10 to i16
  %_h12 = getelementptr inbounds %class.half, ptr %this1, i32 0, i32 0
  store i16 %conv11, ptr %_h12, align 2
  br label %if.end

if.else13:                                        ; preds = %if.else
  %11 = load i32, ptr %x, align 4
  %call = call noundef signext i16 @_ZN4half7convertEi(i32 noundef %11)
  %_h14 = getelementptr inbounds %class.half, ptr %this1, i32 0, i32 0
  store i16 %call, ptr %_h14, align 2
  br label %if.end

if.end:                                           ; preds = %if.else13, %if.then4
  br label %if.end15

if.end15:                                         ; preds = %if.end, %if.then
  ret void
}

; Function Attrs: mustprogress uwtable
define linkonce_odr hidden noundef nonnull align 2 dereferenceable(2) ptr @_ZN4halfaSEf(ptr noundef nonnull align 2 dereferenceable(2) %this, float noundef %f) #7 comdat align 2 {
entry:
  %this.addr = alloca ptr, align 8
  %f.addr = alloca float, align 4
  %ref.tmp = alloca %class.half, align 2
  store ptr %this, ptr %this.addr, align 8
  store float %f, ptr %f.addr, align 4
  %this1 = load ptr, ptr %this.addr, align 8
  %0 = load float, ptr %f.addr, align 4
  call void @_ZN4halfC2Ef(ptr noundef nonnull align 2 dereferenceable(2) %ref.tmp, float noundef %0)
  call void @llvm.memcpy.p0.p0.i64(ptr align 2 %this1, ptr align 2 %ref.tmp, i64 2, i1 false)
  ret ptr %this1
}

; Function Attrs: mustprogress uwtable
define linkonce_odr hidden void @_ZN18OpenImageIO_v2_6_04simd7vfloat4C2EPKf(ptr noundef nonnull align 16 dereferenceable(16) %this, ptr noundef %f) unnamed_addr #6 comdat align 2 {
entry:
  %__p.addr.i = alloca ptr, align 8
  %this.addr.i = alloca ptr, align 8
  %values.addr.i = alloca ptr, align 8
  %this.addr = alloca ptr, align 8
  %f.addr = alloca ptr, align 8
  store ptr %this, ptr %this.addr, align 8
  store ptr %f, ptr %f.addr, align 8
  %this1 = load ptr, ptr %this.addr, align 8
  %0 = load ptr, ptr %f.addr, align 8
  store ptr %this1, ptr %this.addr.i, align 8
  store ptr %0, ptr %values.addr.i, align 8
  %this1.i = load ptr, ptr %this.addr.i, align 8
  %1 = load ptr, ptr %values.addr.i, align 8
  store ptr %1, ptr %__p.addr.i, align 8
  %2 = load ptr, ptr %__p.addr.i, align 8
  %3 = load <4 x float>, ptr %2, align 1
  store <4 x float> %3, ptr %this1.i, align 16
  ret void
}

; Function Attrs: mustprogress uwtable
define void @_ZN18OpenImageIO_v2_6_012convert_typeIf4halfEEvPKT_PT0_mS5_S5_(ptr noundef %src, ptr noundef %dst, i64 noundef %n, i16 %.coerce, i16 %.coerce1) #7 {
entry:
  %this.addr.i = alloca ptr, align 8
  %values.addr.i = alloca ptr, align 8
  %i.i = alloca i32, align 4
  %0 = alloca %class.half, align 2
  %1 = alloca %class.half, align 2
  %src.addr = alloca ptr, align 8
  %dst.addr = alloca ptr, align 8
  %n.addr = alloca i64, align 8
  %s = alloca %"class.OpenImageIO_v2_6_0::simd::vfloat4", align 16
  %coerce.dive = getelementptr inbounds %class.half, ptr %0, i32 0, i32 0
  store i16 %.coerce, ptr %coerce.dive, align 2
  %coerce.dive2 = getelementptr inbounds %class.half, ptr %1, i32 0, i32 0
  store i16 %.coerce1, ptr %coerce.dive2, align 2
  store ptr %src, ptr %src.addr, align 8
  store ptr %dst, ptr %dst.addr, align 8
  store i64 %n, ptr %n.addr, align 8
  br label %for.cond

for.cond:                                         ; preds = %for.inc, %entry
  %2 = load i64, ptr %n.addr, align 8
  %cmp = icmp uge i64 %2, 4
  br i1 %cmp, label %for.body, label %for.end

for.body:                                         ; preds = %for.cond
  %3 = load ptr, ptr %src.addr, align 8
  call void @_ZN18OpenImageIO_v2_6_04simd7vfloat4C2EPKf(ptr noundef nonnull align 16 dereferenceable(16) %s, ptr noundef %3)
  %4 = load ptr, ptr %dst.addr, align 8
  store ptr %s, ptr %this.addr.i, align 8
  store ptr %4, ptr %values.addr.i, align 8
  %this1.i = load ptr, ptr %this.addr.i, align 8
  store i32 0, ptr %i.i, align 4
  br label %for.cond.i

for.cond.i:                                       ; preds = %for.body.i, %for.body
  %5 = load i32, ptr %i.i, align 4
  %cmp.i = icmp slt i32 %5, 4
  br i1 %cmp.i, label %for.body.i, label %_ZNK18OpenImageIO_v2_6_04simd7vfloat45storeEP4half.exit

for.body.i:                                       ; preds = %for.cond.i
  %6 = load i32, ptr %i.i, align 4
  %idxprom.i = sext i32 %6 to i64
  %arrayidx.i = getelementptr inbounds [4 x float], ptr %this1.i, i64 0, i64 %idxprom.i
  %7 = load float, ptr %arrayidx.i, align 4
  %8 = load ptr, ptr %values.addr.i, align 8
  %9 = load i32, ptr %i.i, align 4
  %idxprom2.i = sext i32 %9 to i64
  %arrayidx3.i = getelementptr inbounds %class.half, ptr %8, i64 %idxprom2.i
  %call.i = call noundef nonnull align 2 dereferenceable(2) ptr @_ZN4halfaSEf(ptr noundef nonnull align 2 dereferenceable(2) %arrayidx3.i, float noundef %7)
  %10 = load i32, ptr %i.i, align 4
  %inc.i = add nsw i32 %10, 1
  store i32 %inc.i, ptr %i.i, align 4
  br label %for.cond.i, !llvm.loop !8

_ZNK18OpenImageIO_v2_6_04simd7vfloat45storeEP4half.exit: ; preds = %for.cond.i
  br label %for.inc

for.inc:                                          ; preds = %_ZNK18OpenImageIO_v2_6_04simd7vfloat45storeEP4half.exit
  %11 = load i64, ptr %n.addr, align 8
  %sub = sub i64 %11, 4
  store i64 %sub, ptr %n.addr, align 8
  %12 = load ptr, ptr %src.addr, align 8
  %add.ptr = getelementptr inbounds float, ptr %12, i64 4
  store ptr %add.ptr, ptr %src.addr, align 8
  %13 = load ptr, ptr %dst.addr, align 8
  %add.ptr3 = getelementptr inbounds %class.half, ptr %13, i64 4
  store ptr %add.ptr3, ptr %dst.addr, align 8
  br label %for.cond, !llvm.loop !9

for.end:                                          ; preds = %for.cond
  br label %while.cond

while.cond:                                       ; preds = %while.body, %for.end
  %14 = load i64, ptr %n.addr, align 8
  %dec = add i64 %14, -1
  store i64 %dec, ptr %n.addr, align 8
  %tobool = icmp ne i64 %14, 0
  br i1 %tobool, label %while.body, label %while.end

while.body:                                       ; preds = %while.cond
  %15 = load ptr, ptr %src.addr, align 8
  %incdec.ptr = getelementptr inbounds float, ptr %15, i32 1
  store ptr %incdec.ptr, ptr %src.addr, align 8
  %16 = load float, ptr %15, align 4
  %17 = load ptr, ptr %dst.addr, align 8
  %incdec.ptr4 = getelementptr inbounds %class.half, ptr %17, i32 1
  store ptr %incdec.ptr4, ptr %dst.addr, align 8
  %call = call noundef nonnull align 2 dereferenceable(2) ptr @_ZN4halfaSEf(ptr noundef nonnull align 2 dereferenceable(2) %17, float noundef %16)
  br label %while.cond, !llvm.loop !10

while.end:                                        ; preds = %while.cond
  ret void
}