; Function Attrs: mustprogress uwtable
define void @_ZN18OpenImageIO_v2_6_012convert_typeIf4halfEEvPKT_PT0_mS5_S5_(ptr noundef readonly captures(none) %src, ptr noundef writeonly captures(none) %dst, i64 noundef %n, i16 %.coerce, i16 %.coerce1) local_unnamed_addr #4 {
entry:
  %s = alloca %"class.OpenImageIO_v2_6_0::simd::vfloat4", align 16
  %cmp33 = icmp ugt i64 %n, 3
  br i1 %cmp33, label %for.body, label %while.cond.preheader

while.cond.preheader:                             ; preds = %for.inc, %entry
  %src.addr.0.lcssa = phi ptr [ %src, %entry ], [ %add.ptr, %for.inc ]
  %dst.addr.0.lcssa = phi ptr [ %dst, %entry ], [ %add.ptr3, %for.inc ]
  %n.addr.0.lcssa = phi i64 [ %n, %entry ], [ %sub, %for.inc ]
  %tobool.not39 = icmp eq i64 %n.addr.0.lcssa, 0
  br i1 %tobool.not39, label %while.end, label %while.body

for.body:                                         ; preds = %entry, %for.inc
  %n.addr.036 = phi i64 [ %sub, %for.inc ], [ %n, %entry ]
  %dst.addr.035 = phi ptr [ %add.ptr3, %for.inc ], [ %dst, %entry ]
  %src.addr.034 = phi ptr [ %add.ptr, %for.inc ], [ %src, %entry ]
  %0 = load <4 x float>, ptr %src.addr.034, align 1
  store <4 x float> %0, ptr %s, align 16
  br label %for.body.i

for.body.i:                                       ; preds = %for.body, %_ZN4halfaSEf.exit
  %indvars.iv = phi i64 [ 0, %for.body ], [ %indvars.iv.next, %_ZN4halfaSEf.exit ]
  %arrayidx.i = getelementptr inbounds nuw [4 x float], ptr %s, i64 0, i64 %indvars.iv
  %1 = load float, ptr %arrayidx.i, align 4
  %arrayidx3.i = getelementptr inbounds nuw %class.half, ptr %dst.addr.035, i64 %indvars.iv
  %2 = bitcast float %1 to i32
  %cmp.i.i = fcmp oeq float %1, 0.000000e+00
  br i1 %cmp.i.i, label %if.then.i.i, label %if.else.i.i

if.then.i.i:                                      ; preds = %for.body.i
  %shr.i.i = lshr exact i32 %2, 16
  %conv.i.i = trunc nuw i32 %shr.i.i to i16
  br label %_ZN4halfaSEf.exit

if.else.i.i:                                      ; preds = %for.body.i
  %shr2.i.i = lshr i32 %2, 23
  %idxprom.i.i = zext nneg i32 %shr2.i.i to i64
  %arrayidx.i.i = getelementptr inbounds nuw [512 x i16], ptr @_ZN4half5_eLutE, i64 0, i64 %idxprom.i.i
  %3 = load i16, ptr %arrayidx.i.i, align 2
  %tobool.not.i.i = icmp eq i16 %3, 0
  br i1 %tobool.not.i.i, label %if.else13.i.i, label %if.then4.i.i

if.then4.i.i:                                     ; preds = %if.else.i.i
  %and5.i.i = and i32 %2, 8388607
  %add.i.i = add nuw nsw i32 %and5.i.i, 4095
  %shr6.i.i = lshr i32 %2, 13
  %and7.i.i = and i32 %shr6.i.i, 1
  %add8.i.i = add nuw nsw i32 %add.i.i, %and7.i.i
  %shr9.i.i = lshr i32 %add8.i.i, 13
  %4 = trunc nuw nsw i32 %shr9.i.i to i16
  %conv11.i.i = add i16 %3, %4
  br label %_ZN4halfaSEf.exit

if.else13.i.i:                                    ; preds = %if.else.i.i
  %call.i.i = tail call noundef signext i16 @_ZN4half7convertEi(i32 noundef %2)
  br label %_ZN4halfaSEf.exit

_ZN4halfaSEf.exit:                                ; preds = %if.then.i.i, %if.then4.i.i, %if.else13.i.i
  %conv11.sink.i.i = phi i16 [ %conv11.i.i, %if.then4.i.i ], [ %call.i.i, %if.else13.i.i ], [ %conv.i.i, %if.then.i.i ]
  store i16 %conv11.sink.i.i, ptr %arrayidx3.i, align 2
  %indvars.iv.next = add nuw nsw i64 %indvars.iv, 1
  %exitcond.not = icmp eq i64 %indvars.iv.next, 4
  br i1 %exitcond.not, label %for.inc, label %for.body.i, !llvm.loop !8

for.inc:                                          ; preds = %_ZN4halfaSEf.exit
  %sub = add i64 %n.addr.036, -4
  %add.ptr = getelementptr inbounds nuw i8, ptr %src.addr.034, i64 16
  %add.ptr3 = getelementptr inbounds nuw i8, ptr %dst.addr.035, i64 8
  %cmp = icmp ugt i64 %sub, 3
  br i1 %cmp, label %for.body, label %while.cond.preheader, !llvm.loop !9

while.body:                                       ; preds = %while.cond.preheader, %_ZN4halfaSEf.exit31
  %n.addr.142 = phi i64 [ %dec, %_ZN4halfaSEf.exit31 ], [ %n.addr.0.lcssa, %while.cond.preheader ]
  %dst.addr.141 = phi ptr [ %incdec.ptr4, %_ZN4halfaSEf.exit31 ], [ %dst.addr.0.lcssa, %while.cond.preheader ]
  %src.addr.140 = phi ptr [ %incdec.ptr, %_ZN4halfaSEf.exit31 ], [ %src.addr.0.lcssa, %while.cond.preheader ]
  %dec = add i64 %n.addr.142, -1
  %incdec.ptr = getelementptr inbounds nuw i8, ptr %src.addr.140, i64 4
  %5 = load float, ptr %src.addr.140, align 4
  %incdec.ptr4 = getelementptr inbounds nuw i8, ptr %dst.addr.141, i64 2
  %6 = bitcast float %5 to i32
  %cmp.i.i11 = fcmp oeq float %5, 0.000000e+00
  br i1 %cmp.i.i11, label %if.then.i.i28, label %if.else.i.i12

if.then.i.i28:                                    ; preds = %while.body
  %shr.i.i29 = lshr exact i32 %6, 16
  %conv.i.i30 = trunc nuw i32 %shr.i.i29 to i16
  br label %_ZN4halfaSEf.exit31

if.else.i.i12:                                    ; preds = %while.body
  %shr2.i.i13 = lshr i32 %6, 23
  %idxprom.i.i14 = zext nneg i32 %shr2.i.i13 to i64
  %arrayidx.i.i15 = getelementptr inbounds nuw [512 x i16], ptr @_ZN4half5_eLutE, i64 0, i64 %idxprom.i.i14
  %7 = load i16, ptr %arrayidx.i.i15, align 2
  %tobool.not.i.i16 = icmp eq i16 %7, 0
  br i1 %tobool.not.i.i16, label %if.else13.i.i26, label %if.then4.i.i17

if.then4.i.i17:                                   ; preds = %if.else.i.i12
  %and5.i.i18 = and i32 %6, 8388607
  %add.i.i19 = add nuw nsw i32 %and5.i.i18, 4095
  %shr6.i.i20 = lshr i32 %6, 13
  %and7.i.i21 = and i32 %shr6.i.i20, 1
  %add8.i.i22 = add nuw nsw i32 %add.i.i19, %and7.i.i21
  %shr9.i.i23 = lshr i32 %add8.i.i22, 13
  %8 = trunc nuw nsw i32 %shr9.i.i23 to i16
  %conv11.i.i24 = add i16 %7, %8
  br label %_ZN4halfaSEf.exit31

if.else13.i.i26:                                  ; preds = %if.else.i.i12
  %call.i.i27 = tail call noundef signext i16 @_ZN4half7convertEi(i32 noundef %6)
  br label %_ZN4halfaSEf.exit31

_ZN4halfaSEf.exit31:                              ; preds = %if.then.i.i28, %if.then4.i.i17, %if.else13.i.i26
  %conv11.sink.i.i25 = phi i16 [ %conv11.i.i24, %if.then4.i.i17 ], [ %call.i.i27, %if.else13.i.i26 ], [ %conv.i.i30, %if.then.i.i28 ]
  store i16 %conv11.sink.i.i25, ptr %dst.addr.141, align 2
  %tobool.not = icmp eq i64 %dec, 0
  br i1 %tobool.not, label %while.end, label %while.body, !llvm.loop !10

while.end:                                        ; preds = %_ZN4halfaSEf.exit31, %while.cond.preheader
  ret void
}